; ModuleID = '50/1687.c'
source_filename = "50/1687.c"
target datalayout = "e-m:e-p270:32:32-p271:32:32-p272:64:64-i64:64-f80:128-n8:16:32:64-S128"
target triple = "x86_64-pc-linux-gnu"

@.str = private unnamed_addr constant [3 x i8] c"%d\00", align 1
@.str.1 = private unnamed_addr constant [4 x i8] c"%d\0A\00", align 1

; Function Attrs: noinline nounwind uwtable
define dso_local i32 @main() #0 {
  %1 = alloca i32, align 4
  %2 = alloca i32, align 4
  %3 = alloca i32, align 4
  %4 = alloca i32, align 4
  store i32 0, i32* %1, align 4
  %5 = call i32 (i8*, ...) @__isoc99_scanf(i8* getelementptr inbounds ([3 x i8], [3 x i8]* @.str, i64 0, i64 0), i32* %2)
  store i32 1, i32* %4, align 4
  br label %6

6:                                                ; preds = %19, %0
  %7 = load i32, i32* %4, align 4
  %8 = icmp sle i32 %7, 12
  br i1 %8, label %9, label %22

9:                                                ; preds = %6
  %10 = load i32, i32* %4, align 4
  %11 = load i32, i32* %2, align 4
  %12 = call i32 @pd(i32 %10, i32 %11)
  store i32 %12, i32* %3, align 4
  %13 = load i32, i32* %3, align 4
  %14 = icmp eq i32 %13, 0
  br i1 %14, label %15, label %18

15:                                               ; preds = %9
  %16 = load i32, i32* %4, align 4
  %17 = call i32 (i8*, ...) @printf(i8* getelementptr inbounds ([4 x i8], [4 x i8]* @.str.1, i64 0, i64 0), i32 %16)
  br label %18

18:                                               ; preds = %15, %9
  br label %19

19:                                               ; preds = %18
  %20 = load i32, i32* %4, align 4
  %21 = add nsw i32 %20, 1
  store i32 %21, i32* %4, align 4
  br label %6

22:                                               ; preds = %6
  ret i32 0
}

declare dso_local i32 @__isoc99_scanf(i8*, ...) #1

; Function Attrs: noinline nounwind uwtable
define dso_local i32 @pd(i32 %0, i32 %1) #0 {
  %3 = alloca i32, align 4
  %4 = alloca i32, align 4
  %5 = alloca i32, align 4
  %6 = alloca i32, align 4
  %7 = alloca i32, align 4
  store i32 %0, i32* %3, align 4
  store i32 %1, i32* %4, align 4
  store i32 0, i32* %5, align 4
  store i32 1, i32* %7, align 4
  br label %8

8:                                                ; preds = %61, %2
  %9 = load i32, i32* %7, align 4
  %10 = load i32, i32* %3, align 4
  %11 = icmp sle i32 %9, %10
  br i1 %11, label %12, label %64

12:                                               ; preds = %8
  %13 = load i32, i32* %7, align 4
  %14 = icmp eq i32 %13, 1
  br i1 %14, label %15, label %18

15:                                               ; preds = %12
  %16 = load i32, i32* %5, align 4
  %17 = add nsw i32 %16, 13
  store i32 %17, i32* %5, align 4
  br label %18

18:                                               ; preds = %15, %12
  %19 = load i32, i32* %7, align 4
  %20 = icmp eq i32 %19, 2
  br i1 %20, label %36, label %21

21:                                               ; preds = %18
  %22 = load i32, i32* %7, align 4
  %23 = icmp eq i32 %22, 4
  br i1 %23, label %36, label %24

24:                                               ; preds = %21
  %25 = load i32, i32* %7, align 4
  %26 = icmp eq i32 %25, 6
  br i1 %26, label %36, label %27

27:                                               ; preds = %24
  %28 = load i32, i32* %7, align 4
  %29 = icmp eq i32 %28, 8
  br i1 %29, label %36, label %30

30:                                               ; preds = %27
  %31 = load i32, i32* %7, align 4
  %32 = icmp eq i32 %31, 9
  br i1 %32, label %36, label %33

33:                                               ; preds = %30
  %34 = load i32, i32* %7, align 4
  %35 = icmp eq i32 %34, 11
  br i1 %35, label %36, label %39

36:                                               ; preds = %33, %30, %27, %24, %21, %18
  %37 = load i32, i32* %5, align 4
  %38 = add nsw i32 %37, 31
  store i32 %38, i32* %5, align 4
  br label %39

39:                                               ; preds = %36, %33
  %40 = load i32, i32* %7, align 4
  %41 = icmp eq i32 %40, 3
  br i1 %41, label %42, label %45

42:                                               ; preds = %39
  %43 = load i32, i32* %5, align 4
  %44 = add nsw i32 %43, 28
  store i32 %44, i32* %5, align 4
  br label %45

45:                                               ; preds = %42, %39
  %46 = load i32, i32* %7, align 4
  %47 = icmp eq i32 %46, 5
  br i1 %47, label %57, label %48

48:                                               ; preds = %45
  %49 = load i32, i32* %7, align 4
  %50 = icmp eq i32 %49, 7
  br i1 %50, label %57, label %51

51:                                               ; preds = %48
  %52 = load i32, i32* %7, align 4
  %53 = icmp eq i32 %52, 10
  br i1 %53, label %57, label %54

54:                                               ; preds = %51
  %55 = load i32, i32* %7, align 4
  %56 = icmp eq i32 %55, 12
  br i1 %56, label %57, label %60

57:                                               ; preds = %54, %51, %48, %45
  %58 = load i32, i32* %5, align 4
  %59 = add nsw i32 %58, 30
  store i32 %59, i32* %5, align 4
  br label %60

60:                                               ; preds = %57, %54
  br label %61

61:                                               ; preds = %60
  %62 = load i32, i32* %7, align 4
  %63 = add nsw i32 %62, 1
  store i32 %63, i32* %7, align 4
  br label %8

64:                                               ; preds = %8
  %65 = load i32, i32* %5, align 4
  %66 = load i32, i32* %4, align 4
  %67 = add nsw i32 %65, %66
  %68 = sub nsw i32 %67, 1
  store i32 %68, i32* %5, align 4
  %69 = load i32, i32* %5, align 4
  %70 = srem i32 %69, 7
  %71 = icmp eq i32 %70, 5
  br i1 %71, label %72, label %73

72:                                               ; preds = %64
  store i32 0, i32* %6, align 4
  br label %74

73:                                               ; preds = %64
  store i32 1, i32* %6, align 4
  br label %74

74:                                               ; preds = %73, %72
  %75 = load i32, i32* %6, align 4
  ret i32 %75
}

declare dso_local i32 @printf(i8*, ...) #1


!llvm.module.flags = !{!0}
!llvm.ident = !{!1}

!0 = !{i32 1, !"wchar_size", i32 4}
!1 = !{!"clang version 10.0.0-4ubuntu1 "}
